; Function Attrs: mustprogress nofree norecurse nosync nounwind willreturn memory(read, inaccessiblemem: none) uwtable
define noundef nonnull align 8 dereferenceable(16) ptr @_ZNK5arrow18FixedSizeListArray10value_typeEv(ptr nocapture noundef nonnull readonly align 8 dereferenceable(56) %this) local_unnamed_addr #4 align 2 {
entry:
  %data_.i = getelementptr inbounds i8, ptr %this, i64 8
  %0 = load ptr, ptr %data_.i, align 8
  %1 = load ptr, ptr %0, align 8
  %children_.i = getelementptr inbounds i8, ptr %1, i64 48
  %2 = load ptr, ptr %children_.i, align 8
  %3 = load ptr, ptr %2, align 8
  %type_.i.i = getelementptr inbounds i8, ptr %3, i64 56
  ret ptr %type_.i.i
}